target datalayout = "e-m:e-p270:32:32-p271:32:32-p272:64:64-i64:64-i128:128-f80:128-n8:16:32:64-S128"
target triple = "x86_64-unknown-linux-gnu"

%"struct.std::atomic.2" = type { %"struct.std::__atomic_base.3" }
%"struct.std::__atomic_base.3" = type { i64 }
%"class.absl::lts_20230802::Status" = type { i64 }
%struct.grpc_closure = type { %union.anon.114, ptr, ptr, %union.anon.115 }
%union.anon.114 = type { ptr }
%union.anon.115 = type { i64 }
%class.AtomicError = type { %"class.absl::lts_20230802::Status", %struct.gpr_spinlock }
%struct.gpr_spinlock = type { i64 }
%struct.grpc_transport_stream_op_batch = type { ptr, ptr, i8, %struct.grpc_handler_private_op_data }
%struct.grpc_handler_private_op_data = type { ptr, %struct.grpc_closure }
%"struct.grpc_core::FilterStackCall::BatchControl" = type { ptr, ptr, %struct.grpc_transport_stream_op_batch, %union.anon.252, %struct.grpc_closure, %struct.grpc_closure, %"struct.std::atomic.2", %class.AtomicError }
%union.anon.252 = type { %struct.grpc_cq_completion }
%struct.grpc_cq_completion = type { %"class.grpc_core::ManualConstructor", ptr, ptr, ptr, i64 }
%"class.grpc_core::ManualConstructor" = type { [8 x i8] }
%class.anon.254 = type { i8 }

@.str.37 = private unnamed_addr constant [11 x i8] c"completion\00", align 1

; Function Attrs: mustprogress uwtable
define internal void @"_ZZN9grpc_core15FilterStackCall12BatchControl14PostCompletionEvENK3$_0clEPvP18grpc_cq_completion"(ptr noundef nonnull align 1 dereferenceable(1) %this, ptr noundef %user_data, ptr noundef %0) #4 align 2 {
entry:
  %this.addr = alloca ptr, align 8
  %user_data.addr = alloca ptr, align 8
  %.addr = alloca ptr, align 8
  %bctl = alloca ptr, align 8
  %call = alloca ptr, align 8
  store ptr %this, ptr %this.addr, align 8
  store ptr %user_data, ptr %user_data.addr, align 8
  store ptr %0, ptr %.addr, align 8
  %1 = load ptr, ptr %user_data.addr, align 8
  store ptr %1, ptr %bctl, align 8
  %2 = load ptr, ptr %bctl, align 8
  %call_ = getelementptr inbounds %"struct.grpc_core::FilterStackCall::BatchControl", ptr %2, i32 0, i32 0
  %3 = load ptr, ptr %call_, align 8
  store ptr %3, ptr %call, align 8
  %4 = load ptr, ptr %bctl, align 8
  %call_2 = getelementptr inbounds %"struct.grpc_core::FilterStackCall::BatchControl", ptr %4, i32 0, i32 0
  store ptr null, ptr %call_2, align 8
  %5 = load ptr, ptr %call, align 8
  %vtable = load ptr, ptr %5, align 8
  %vfn = getelementptr inbounds ptr, ptr %vtable, i64 12
  %6 = load ptr, ptr %vfn, align 8
  call void %6(ptr noundef nonnull align 8 dereferenceable(112) %5, ptr noundef @.str.37)
  ret void
}

; Function Attrs: mustprogress uwtable
define internal void @"_ZZN9grpc_core15FilterStackCall12BatchControl14PostCompletionEvEN3$_08__invokeEPvP18grpc_cq_completion"(ptr noundef %user_data, ptr noundef %0) #4 align 2 {
entry:
  %user_data.addr = alloca ptr, align 8
  %.addr = alloca ptr, align 8
  %unused.capture = alloca %class.anon.254, align 1
  store ptr %user_data, ptr %user_data.addr, align 8
  store ptr %0, ptr %.addr, align 8
  %1 = load ptr, ptr %user_data.addr, align 8
  %2 = load ptr, ptr %.addr, align 8
  call void @"_ZZN9grpc_core15FilterStackCall12BatchControl14PostCompletionEvENK3$_0clEPvP18grpc_cq_completion"(ptr noundef nonnull align 1 dereferenceable(1) %unused.capture, ptr noundef %1, ptr noundef %2)
  ret void
}