; Function Attrs: mustprogress uwtable
define internal void @"_ZZN9grpc_core15FilterStackCall12BatchControl14PostCompletionEvEN3$_08__invokeEPvP18grpc_cq_completion"(ptr nocapture noundef %user_data, ptr nocapture readnone %0) #3 align 2 {
entry:
  %1 = load ptr, ptr %user_data, align 8
  store ptr null, ptr %user_data, align 8
  %vtable.i = load ptr, ptr %1, align 8
  %vfn.i = getelementptr inbounds i8, ptr %vtable.i, i64 96
  %2 = load ptr, ptr %vfn.i, align 8
  tail call void %2(ptr noundef nonnull align 8 dereferenceable(112) %1, ptr noundef nonnull @.str.37)
  ret void
}